; Function Attrs: mustprogress nofree norecurse nosync nounwind ssp willreturn memory(argmem: readwrite) uwtable
define internal fastcc void @ge25519_add_precomp(ptr noundef nonnull captures(none) initializes((0, 80)) %0, ptr noundef readonly captures(none) %1, ptr noundef readonly captures(none) %2) unnamed_addr #0 {
  %4 = getelementptr inbounds nuw i8, ptr %1, i64 40
  %5 = load i64, ptr %4, align 8
  %6 = load i64, ptr %1, align 8
  %7 = add i64 %6, %5
  %8 = getelementptr i8, ptr %1, i64 48
  %9 = load i64, ptr %8, align 8
  %10 = getelementptr i8, ptr %1, i64 8
  %11 = load i64, ptr %10, align 8
  %12 = add i64 %11, %9
  %13 = getelementptr i8, ptr %1, i64 56
  %14 = load i64, ptr %13, align 8
  %15 = getelementptr i8, ptr %1, i64 16
  %16 = load i64, ptr %15, align 8
  %17 = add i64 %16, %14
  %18 = getelementptr i8, ptr %1, i64 64
  %19 = load i64, ptr %18, align 8
  %20 = getelementptr i8, ptr %1, i64 24
  %21 = load i64, ptr %20, align 8
  %22 = add i64 %21, %19
  %23 = getelementptr i8, ptr %1, i64 72
  %24 = load i64, ptr %23, align 8
  %25 = getelementptr i8, ptr %1, i64 32
  %26 = load i64, ptr %25, align 8
  %27 = add i64 %26, %24
  store i64 %7, ptr %0, align 8
  %28 = getelementptr i8, ptr %0, i64 8
  store i64 %12, ptr %28, align 8
  %29 = getelementptr i8, ptr %0, i64 16
  store i64 %17, ptr %29, align 8
  %30 = getelementptr i8, ptr %0, i64 24
  store i64 %22, ptr %30, align 8
  %31 = getelementptr i8, ptr %0, i64 32
  store i64 %27, ptr %31, align 8
  %32 = getelementptr inbounds nuw i8, ptr %0, i64 40
  %33 = load i64, ptr %1, align 8
  %34 = load i64, ptr %10, align 8
  %35 = load i64, ptr %15, align 8
  %36 = load i64, ptr %20, align 8
  %37 = load i64, ptr %25, align 8
  %38 = lshr i64 %33, 51
  %39 = add i64 %34, %38
  %40 = and i64 %33, 2251799813685247
  %41 = lshr i64 %39, 51
  %42 = add i64 %41, %35
  %43 = and i64 %39, 2251799813685247
  %44 = lshr i64 %42, 51
  %45 = add i64 %44, %36
  %46 = and i64 %42, 2251799813685247
  %47 = lshr i64 %45, 51
  %48 = add i64 %47, %37
  %49 = and i64 %45, 2251799813685247
  %50 = lshr i64 %48, 51
  %51 = and i64 %48, 2251799813685247
  %52 = load i64, ptr %4, align 8
  %.neg39.i = mul nsw i64 %50, -19
  %reass.sub = sub i64 %52, %40
  %53 = add i64 %reass.sub, 4503599627370458
  %54 = add i64 %53, %.neg39.i
  %55 = load i64, ptr %8, align 8
  %reass.sub56 = sub i64 %55, %43
  %56 = add i64 %reass.sub56, 4503599627370494
  %57 = load i64, ptr %13, align 8
  %reass.sub57 = sub i64 %57, %46
  %58 = add i64 %reass.sub57, 4503599627370494
  %59 = load i64, ptr %18, align 8
  %reass.sub58 = sub i64 %59, %49
  %60 = add i64 %reass.sub58, 4503599627370494
  %61 = load i64, ptr %23, align 8
  %62 = add i64 %61, 4503599627370494
  %63 = sub i64 %62, %51
  store i64 %54, ptr %32, align 8
  %64 = getelementptr i8, ptr %0, i64 48
  store i64 %56, ptr %64, align 8
  %65 = getelementptr i8, ptr %0, i64 56
  store i64 %58, ptr %65, align 8
  %66 = getelementptr i8, ptr %0, i64 64
  store i64 %60, ptr %66, align 8
  %67 = getelementptr i8, ptr %0, i64 72
  store i64 %63, ptr %67, align 8
  %68 = getelementptr inbounds nuw i8, ptr %0, i64 80
  tail call fastcc void @fe25519_mul(ptr noundef nonnull %68, ptr noundef nonnull %0, ptr noundef %2)
  %69 = getelementptr inbounds nuw i8, ptr %2, i64 40
  tail call fastcc void @fe25519_mul(ptr noundef nonnull %32, ptr noundef nonnull %32, ptr noundef nonnull %69)
  %70 = getelementptr inbounds nuw i8, ptr %0, i64 120
  %71 = getelementptr inbounds nuw i8, ptr %2, i64 80
  %72 = getelementptr inbounds nuw i8, ptr %1, i64 120
  tail call fastcc void @fe25519_mul(ptr noundef nonnull %70, ptr noundef nonnull %71, ptr noundef nonnull %72)
  %73 = getelementptr inbounds nuw i8, ptr %1, i64 80
  %74 = load i64, ptr %73, align 8
  %75 = shl i64 %74, 1
  %76 = getelementptr i8, ptr %1, i64 88
  %77 = load i64, ptr %76, align 8
  %78 = shl i64 %77, 1
  %79 = getelementptr i8, ptr %1, i64 96
  %80 = load i64, ptr %79, align 8
  %81 = shl i64 %80, 1
  %82 = getelementptr i8, ptr %1, i64 104
  %83 = load i64, ptr %82, align 8
  %84 = shl i64 %83, 1
  %85 = getelementptr i8, ptr %1, i64 112
  %86 = load i64, ptr %85, align 8
  %87 = shl i64 %86, 1
  %88 = load i64, ptr %32, align 8
  %89 = load i64, ptr %64, align 8
  %90 = load i64, ptr %65, align 8
  %91 = load i64, ptr %66, align 8
  %92 = load i64, ptr %67, align 8
  %93 = lshr i64 %88, 51
  %94 = add i64 %89, %93
  %95 = and i64 %88, 2251799813685247
  %96 = lshr i64 %94, 51
  %97 = add i64 %96, %90
  %98 = and i64 %94, 2251799813685247
  %99 = lshr i64 %97, 51
  %100 = add i64 %99, %91
  %101 = and i64 %97, 2251799813685247
  %102 = lshr i64 %100, 51
  %103 = add i64 %102, %92
  %104 = and i64 %100, 2251799813685247
  %105 = lshr i64 %103, 51
  %106 = and i64 %103, 2251799813685247
  %107 = load i64, ptr %68, align 8
  %.neg39.i27 = mul nsw i64 %105, -19
  %reass.sub59 = sub i64 %107, %95
  %108 = add i64 %reass.sub59, 4503599627370458
  %109 = add i64 %108, %.neg39.i27
  %110 = getelementptr i8, ptr %0, i64 88
  %111 = load i64, ptr %110, align 8
  %reass.sub60 = sub i64 %111, %98
  %112 = add i64 %reass.sub60, 4503599627370494
  %113 = getelementptr i8, ptr %0, i64 96
  %114 = load i64, ptr %113, align 8
  %reass.sub61 = sub i64 %114, %101
  %115 = add i64 %reass.sub61, 4503599627370494
  %116 = getelementptr i8, ptr %0, i64 104
  %117 = load i64, ptr %116, align 8
  %reass.sub62 = sub i64 %117, %104
  %118 = add i64 %reass.sub62, 4503599627370494
  %119 = getelementptr i8, ptr %0, i64 112
  %120 = load i64, ptr %119, align 8
  %121 = add i64 %120, 4503599627370494
  %122 = sub i64 %121, %106
  store i64 %109, ptr %0, align 8
  store i64 %112, ptr %28, align 8
  store i64 %115, ptr %29, align 8
  store i64 %118, ptr %30, align 8
  store i64 %122, ptr %31, align 8
  %123 = add i64 %107, %88
  %124 = add i64 %111, %89
  %125 = add i64 %114, %90
  %126 = add i64 %117, %91
  %127 = add i64 %120, %92
  store i64 %123, ptr %32, align 8
  store i64 %124, ptr %64, align 8
  store i64 %125, ptr %65, align 8
  store i64 %126, ptr %66, align 8
  store i64 %127, ptr %67, align 8
  %128 = load i64, ptr %70, align 8
  %129 = add i64 %128, %75
  %130 = getelementptr i8, ptr %0, i64 128
  %131 = load i64, ptr %130, align 8
  %132 = add i64 %131, %78
  %133 = getelementptr i8, ptr %0, i64 136
  %134 = load i64, ptr %133, align 8
  %135 = add i64 %134, %81
  %136 = getelementptr i8, ptr %0, i64 144
  %137 = load i64, ptr %136, align 8
  %138 = add i64 %137, %84
  %139 = getelementptr i8, ptr %0, i64 152
  %140 = load i64, ptr %139, align 8
  %141 = add i64 %140, %87
  store i64 %129, ptr %68, align 8
  store i64 %132, ptr %110, align 8
  store i64 %135, ptr %113, align 8
  store i64 %138, ptr %116, align 8
  store i64 %141, ptr %119, align 8
  %142 = lshr i64 %128, 51
  %143 = add i64 %131, %142
  %144 = and i64 %128, 2251799813685247
  %145 = lshr i64 %143, 51
  %146 = add i64 %145, %134
  %147 = and i64 %143, 2251799813685247
  %148 = lshr i64 %146, 51
  %149 = add i64 %148, %137
  %150 = and i64 %146, 2251799813685247
  %151 = lshr i64 %149, 51
  %152 = add i64 %151, %140
  %153 = and i64 %149, 2251799813685247
  %154 = lshr i64 %152, 51
  %155 = and i64 %152, 2251799813685247
  %.neg39.i32 = mul nsw i64 %154, -19
  %reass.sub.i33 = add i64 %75, 4503599627370458
  %156 = sub i64 %reass.sub.i33, %144
  %157 = add i64 %156, %.neg39.i32
  %reass.sub45.i34 = add i64 %78, 4503599627370494
  %158 = sub i64 %reass.sub45.i34, %147
  %reass.sub46.i35 = add i64 %81, 4503599627370494
  %159 = sub i64 %reass.sub46.i35, %150
  %reass.sub47.i36 = add i64 %84, 4503599627370494
  %160 = sub i64 %reass.sub47.i36, %153
  %161 = add i64 %87, 4503599627370494
  %162 = sub i64 %161, %155
  store i64 %157, ptr %70, align 8
  store i64 %158, ptr %130, align 8
  store i64 %159, ptr %133, align 8
  store i64 %160, ptr %136, align 8
  store i64 %162, ptr %139, align 8
  ret void
}